target datalayout = "e-m:e-p270:32:32-p271:32:32-p272:64:64-i64:64-i128:128-f80:128-n8:16:32:64-S128"
target triple = "x86_64-pc-linux-gnu"

%struct._lv_spinbox_t = type { %struct._lv_textarea_t, i32, i32, i32, i32, i16 }
%struct._lv_textarea_t = type { %struct._lv_obj_t, ptr, ptr, ptr, ptr, ptr, i32, i32, %struct.anon, i32, i32, i8 }
%struct._lv_obj_t = type { ptr, ptr, ptr, ptr, ptr, %struct.lv_area_t, i32, i16, i16 }
%struct.lv_area_t = type { i32, i32, i32, i32 }
%struct.anon = type { i32, i32, %struct.lv_area_t, i32, i8 }

; Function Attrs: nounwind uwtable
define void @lv_spinbox_increment(ptr noundef %0) #0 {
  %2 = alloca ptr, align 8
  %3 = alloca ptr, align 8
  %4 = alloca i32, align 4
  store ptr %0, ptr %2, align 8, !tbaa !3
  br label %5

5:                                                ; preds = %1
  br label %6

6:                                                ; preds = %5
  call void @llvm.lifetime.start.p0(i64 8, ptr %3) #4
  %7 = load ptr, ptr %2, align 8, !tbaa !3
  store ptr %7, ptr %3, align 8, !tbaa !3
  call void @llvm.lifetime.start.p0(i64 4, ptr %4) #4
  %8 = load ptr, ptr %3, align 8, !tbaa !3
  %9 = getelementptr inbounds nuw %struct._lv_spinbox_t, ptr %8, i32 0, i32 1
  %10 = load i32, ptr %9, align 8, !tbaa !7
  store i32 %10, ptr %4, align 4, !tbaa !18
  %11 = load ptr, ptr %3, align 8, !tbaa !3
  %12 = getelementptr inbounds nuw %struct._lv_spinbox_t, ptr %11, i32 0, i32 1
  %13 = load i32, ptr %12, align 8, !tbaa !7
  %14 = icmp slt i32 %13, 0
  br i1 %14, label %15, label %33

15:                                               ; preds = %6
  %16 = load ptr, ptr %3, align 8, !tbaa !3
  %17 = getelementptr inbounds nuw %struct._lv_spinbox_t, ptr %16, i32 0, i32 1
  %18 = load i32, ptr %17, align 8, !tbaa !7
  %19 = load ptr, ptr %3, align 8, !tbaa !3
  %20 = getelementptr inbounds nuw %struct._lv_spinbox_t, ptr %19, i32 0, i32 4
  %21 = load i32, ptr %20, align 4, !tbaa !15
  %22 = add nsw i32 %18, %21
  %23 = icmp sgt i32 %22, 0
  br i1 %23, label %24, label %33

24:                                               ; preds = %15
  %25 = load ptr, ptr %3, align 8, !tbaa !3
  %26 = getelementptr inbounds nuw %struct._lv_spinbox_t, ptr %25, i32 0, i32 4
  %27 = load i32, ptr %26, align 4, !tbaa !15
  %28 = load ptr, ptr %3, align 8, !tbaa !3
  %29 = getelementptr inbounds nuw %struct._lv_spinbox_t, ptr %28, i32 0, i32 1
  %30 = load i32, ptr %29, align 8, !tbaa !7
  %31 = add nsw i32 %27, %30
  %32 = sub nsw i32 0, %31
  store i32 %32, ptr %4, align 4, !tbaa !18
  br label %33

33:                                               ; preds = %24, %15, %6
  %34 = load i32, ptr %4, align 4, !tbaa !18
  %35 = load ptr, ptr %3, align 8, !tbaa !3
  %36 = getelementptr inbounds nuw %struct._lv_spinbox_t, ptr %35, i32 0, i32 4
  %37 = load i32, ptr %36, align 4, !tbaa !15
  %38 = add nsw i32 %34, %37
  %39 = load ptr, ptr %3, align 8, !tbaa !3
  %40 = getelementptr inbounds nuw %struct._lv_spinbox_t, ptr %39, i32 0, i32 2
  %41 = load i32, ptr %40, align 4, !tbaa !16
  %42 = icmp sle i32 %38, %41
  br i1 %42, label %43, label %49

43:                                               ; preds = %33
  %44 = load ptr, ptr %3, align 8, !tbaa !3
  %45 = getelementptr inbounds nuw %struct._lv_spinbox_t, ptr %44, i32 0, i32 4
  %46 = load i32, ptr %45, align 4, !tbaa !15
  %47 = load i32, ptr %4, align 4, !tbaa !18
  %48 = add nsw i32 %47, %46
  store i32 %48, ptr %4, align 4, !tbaa !18
  br label %74

49:                                               ; preds = %33
  %50 = load ptr, ptr %3, align 8, !tbaa !3
  %51 = getelementptr inbounds nuw %struct._lv_spinbox_t, ptr %50, i32 0, i32 5
  %52 = load i16, ptr %51, align 8
  %53 = lshr i16 %52, 8
  %54 = and i16 %53, 1
  %55 = zext i16 %54 to i32
  %56 = icmp ne i32 %55, 0
  br i1 %56, label %57, label %69

57:                                               ; preds = %49
  %58 = load ptr, ptr %3, align 8, !tbaa !3
  %59 = getelementptr inbounds nuw %struct._lv_spinbox_t, ptr %58, i32 0, i32 1
  %60 = load i32, ptr %59, align 8, !tbaa !7
  %61 = load ptr, ptr %3, align 8, !tbaa !3
  %62 = getelementptr inbounds nuw %struct._lv_spinbox_t, ptr %61, i32 0, i32 2
  %63 = load i32, ptr %62, align 4, !tbaa !16
  %64 = icmp eq i32 %60, %63
  br i1 %64, label %65, label %69

65:                                               ; preds = %57
  %66 = load ptr, ptr %3, align 8, !tbaa !3
  %67 = getelementptr inbounds nuw %struct._lv_spinbox_t, ptr %66, i32 0, i32 3
  %68 = load i32, ptr %67, align 8, !tbaa !17
  store i32 %68, ptr %4, align 4, !tbaa !18
  br label %73

69:                                               ; preds = %57, %49
  %70 = load ptr, ptr %3, align 8, !tbaa !3
  %71 = getelementptr inbounds nuw %struct._lv_spinbox_t, ptr %70, i32 0, i32 2
  %72 = load i32, ptr %71, align 4, !tbaa !16
  store i32 %72, ptr %4, align 4, !tbaa !18
  br label %73

73:                                               ; preds = %69, %65
  br label %74

74:                                               ; preds = %73, %43
  %75 = load i32, ptr %4, align 4, !tbaa !18
  %76 = load ptr, ptr %3, align 8, !tbaa !3
  %77 = getelementptr inbounds nuw %struct._lv_spinbox_t, ptr %76, i32 0, i32 1
  %78 = load i32, ptr %77, align 8, !tbaa !7
  %79 = icmp ne i32 %75, %78
  br i1 %79, label %80, label %85

80:                                               ; preds = %74
  %81 = load i32, ptr %4, align 4, !tbaa !18
  %82 = load ptr, ptr %3, align 8, !tbaa !3
  %83 = getelementptr inbounds nuw %struct._lv_spinbox_t, ptr %82, i32 0, i32 1
  store i32 %81, ptr %83, align 8, !tbaa !7
  %84 = load ptr, ptr %2, align 8, !tbaa !3
  call void @lv_spinbox_updatevalue(ptr noundef %84)
  br label %85

85:                                               ; preds = %80, %74
  call void @llvm.lifetime.end.p0(i64 4, ptr %4) #4
  call void @llvm.lifetime.end.p0(i64 8, ptr %3) #4
  ret void
}