; Function Attrs: nounwind uwtable
define void @lv_spinbox_increment(ptr noundef %0) local_unnamed_addr #0 {
._crit_edge:
  %1 = getelementptr inbounds nuw i8, ptr %0, i64 160
  %2 = load i32, ptr %1, align 8, !tbaa !3
  %3 = icmp slt i32 %2, 0
  %4 = getelementptr inbounds nuw i8, ptr %0, i64 172
  %5 = load i32, ptr %4, align 4, !tbaa !14
  %6 = add nsw i32 %5, %2
  %7 = icmp sgt i32 %6, 0
  %8 = sub nsw i32 0, %6
  %9 = select i1 %3, i1 %7, i1 false
  %.0 = select i1 %9, i32 %8, i32 %2
  %10 = add nsw i32 %5, %.0
  %11 = getelementptr inbounds nuw i8, ptr %0, i64 164
  %12 = load i32, ptr %11, align 4, !tbaa !15
  %.not = icmp sgt i32 %10, %12
  br i1 %.not, label %13, label %21

13:                                               ; preds = %._crit_edge
  %14 = getelementptr inbounds nuw i8, ptr %0, i64 176
  %15 = load i16, ptr %14, align 8
  %16 = and i16 %15, 256
  %.not26 = icmp ne i16 %16, 0
  %17 = icmp eq i32 %2, %12
  %or.cond = and i1 %17, %.not26
  br i1 %or.cond, label %18, label %21

18:                                               ; preds = %13
  %19 = getelementptr inbounds nuw i8, ptr %0, i64 168
  %20 = load i32, ptr %19, align 8, !tbaa !16
  br label %21

21:                                               ; preds = %13, %._crit_edge, %18
  %.1 = phi i32 [ %20, %18 ], [ %10, %._crit_edge ], [ %12, %13 ]
  %.not27 = icmp eq i32 %.1, %2
  br i1 %.not27, label %23, label %22

22:                                               ; preds = %21
  store i32 %.1, ptr %1, align 8, !tbaa !3
  tail call fastcc void @lv_spinbox_updatevalue(ptr noundef nonnull %0)
  br label %23

23:                                               ; preds = %22, %21
  ret void
}